target datalayout = "e-m:e-p270:32:32-p271:32:32-p272:64:64-i64:64-i128:128-f80:128-n8:16:32:64-S128"
target triple = "x86_64-pc-linux-gnu"

%"class.icu_77::number::impl::SymbolsWrapper" = type { i32, %union.anon }
%union.anon = type { ptr }

; Function Attrs: noinline noreturn nounwind uwtable
define linkonce_odr hidden void @__clang_call_terminate(ptr noundef %0) #4 comdat {
  %2 = call ptr @__cxa_begin_catch(ptr %0) #10
  call void @_ZSt9terminatev() #12
  unreachable
}

; Function Attrs: mustprogress nounwind uwtable
define void @_ZN6icu_776number4impl14SymbolsWrapper10doMoveFromEOS2_(ptr noundef nonnull align 8 dereferenceable(16) %0, ptr noundef nonnull align 8 dereferenceable(16) %1) #0 align 2 {
  %3 = alloca ptr, align 8
  %4 = alloca ptr, align 8
  store ptr %0, ptr %3, align 8, !tbaa !23
  store ptr %1, ptr %4, align 8, !tbaa !23
  %5 = load ptr, ptr %3, align 8
  %6 = load ptr, ptr %4, align 8, !tbaa !23
  %7 = getelementptr inbounds nuw %"class.icu_77::number::impl::SymbolsWrapper", ptr %6, i32 0, i32 0
  %8 = load i32, ptr %7, align 8, !tbaa !25
  %9 = getelementptr inbounds nuw %"class.icu_77::number::impl::SymbolsWrapper", ptr %5, i32 0, i32 0
  store i32 %8, ptr %9, align 8, !tbaa !25
  %10 = getelementptr inbounds nuw %"class.icu_77::number::impl::SymbolsWrapper", ptr %5, i32 0, i32 0
  %11 = load i32, ptr %10, align 8, !tbaa !25
  switch i32 %11, label %26 [
    i32 0, label %26
    i32 1, label %12
    i32 2, label %19
  ]

12:                                               ; preds = %2
  %13 = load ptr, ptr %4, align 8, !tbaa !23
  %14 = getelementptr inbounds nuw %"class.icu_77::number::impl::SymbolsWrapper", ptr %13, i32 0, i32 1
  %15 = load ptr, ptr %14, align 8, !tbaa !28
  %16 = getelementptr inbounds nuw %"class.icu_77::number::impl::SymbolsWrapper", ptr %5, i32 0, i32 1
  store ptr %15, ptr %16, align 8, !tbaa !28
  %17 = load ptr, ptr %4, align 8, !tbaa !23
  %18 = getelementptr inbounds nuw %"class.icu_77::number::impl::SymbolsWrapper", ptr %17, i32 0, i32 1
  store ptr null, ptr %18, align 8, !tbaa !28
  br label %26

19:                                               ; preds = %2
  %20 = load ptr, ptr %4, align 8, !tbaa !23
  %21 = getelementptr inbounds nuw %"class.icu_77::number::impl::SymbolsWrapper", ptr %20, i32 0, i32 1
  %22 = load ptr, ptr %21, align 8, !tbaa !28
  %23 = getelementptr inbounds nuw %"class.icu_77::number::impl::SymbolsWrapper", ptr %5, i32 0, i32 1
  store ptr %22, ptr %23, align 8, !tbaa !28
  %24 = load ptr, ptr %4, align 8, !tbaa !23
  %25 = getelementptr inbounds nuw %"class.icu_77::number::impl::SymbolsWrapper", ptr %24, i32 0, i32 1
  store ptr null, ptr %25, align 8, !tbaa !28
  br label %26

26:                                               ; preds = %2, %19, %12, %2
  ret void
}

; Function Attrs: mustprogress nounwind uwtable
define void @_ZN6icu_776number4impl14SymbolsWrapperC2EOS2_(ptr noundef nonnull align 8 dereferenceable(16) %0, ptr noundef nonnull align 8 dereferenceable(16) %1) unnamed_addr #0 align 2 personality ptr @__gxx_personality_v0 {
  %3 = alloca ptr, align 8
  %4 = alloca ptr, align 8
  store ptr %0, ptr %3, align 8, !tbaa !23
  store ptr %1, ptr %4, align 8, !tbaa !23
  %5 = load ptr, ptr %3, align 8
  %6 = load ptr, ptr %4, align 8, !tbaa !23
  invoke void @_ZN6icu_776number4impl14SymbolsWrapper10doMoveFromEOS2_(ptr noundef nonnull align 8 dereferenceable(16) %5, ptr noundef nonnull align 8 dereferenceable(16) %6)
          to label %7 unwind label %8

7:                                                ; preds = %2
  ret void

8:                                                ; preds = %2
  %9 = landingpad { ptr, i32 }
          catch ptr null
  %10 = extractvalue { ptr, i32 } %9, 0
  call void @__clang_call_terminate(ptr %10) #12
  unreachable
}