; Function Attrs: mustprogress nofree norecurse nosync nounwind willreturn memory(argmem: readwrite) uwtable
define void @_ZN6icu_776number4impl14SymbolsWrapperC2EOS2_(ptr noundef nonnull writeonly align 8 captures(none) dereferenceable(16) initializes((0, 4)) %0, ptr noundef nonnull align 8 captures(none) dereferenceable(16) %1) unnamed_addr #9 align 2 personality ptr @__gxx_personality_v0 {
  %3 = load i32, ptr %1, align 8, !tbaa !15
  store i32 %3, ptr %0, align 8, !tbaa !15
  %.off.i = add i32 %3, -1
  %switch.i = icmp ult i32 %.off.i, 2
  br i1 %switch.i, label %.sink.split.i, label %_ZN6icu_776number4impl14SymbolsWrapper10doMoveFromEOS2_.exit

.sink.split.i:                                    ; preds = %2
  %4 = getelementptr inbounds nuw i8, ptr %1, i64 8
  %5 = load ptr, ptr %4, align 8, !tbaa !18
  %6 = getelementptr inbounds nuw i8, ptr %0, i64 8
  store ptr %5, ptr %6, align 8, !tbaa !18
  store ptr null, ptr %4, align 8, !tbaa !18
  br label %_ZN6icu_776number4impl14SymbolsWrapper10doMoveFromEOS2_.exit

_ZN6icu_776number4impl14SymbolsWrapper10doMoveFromEOS2_.exit: ; preds = %2, %.sink.split.i
  ret void
}